target datalayout = "e-m:e-p270:32:32-p271:32:32-p272:64:64-i64:64-i128:128-f80:128-n8:16:32:64-S128"
target triple = "x86_64-pc-linux-gnu"

%"class.cvc5::internal::NodeTemplate" = type { ptr }
%"class.std::vector" = type { %"struct.std::_Vector_base" }
%"struct.std::_Vector_base" = type { %"struct.std::_Vector_base<cvc5::internal::NodeTemplate<true>, std::allocator<cvc5::internal::NodeTemplate<true>>>::_Vector_impl" }
%"struct.std::_Vector_base<cvc5::internal::NodeTemplate<true>, std::allocator<cvc5::internal::NodeTemplate<true>>>::_Vector_impl" = type { %"struct.std::_Vector_base<cvc5::internal::NodeTemplate<true>, std::allocator<cvc5::internal::NodeTemplate<true>>>::_Vector_impl_data" }
%"struct.std::_Vector_base<cvc5::internal::NodeTemplate<true>, std::allocator<cvc5::internal::NodeTemplate<true>>>::_Vector_impl_data" = type { ptr, ptr, ptr }
%"class.cvc5::internal::theory::quantifiers::EnumTypeInfoStrat" = type { i32, %"class.cvc5::internal::NodeTemplate", %"class.std::vector.312", %"class.std::vector", %"class.cvc5::internal::NodeTemplate" }
%"class.std::vector.312" = type { %"struct.std::_Vector_base.313" }
%"struct.std::_Vector_base.313" = type { %"struct.std::_Vector_base<std::pair<cvc5::internal::NodeTemplate<true>, cvc5::internal::theory::quantifiers::NodeRole>, std::allocator<std::pair<cvc5::internal::NodeTemplate<true>, cvc5::internal::theory::quantifiers::NodeRole>>>::_Vector_impl" }
%"struct.std::_Vector_base<std::pair<cvc5::internal::NodeTemplate<true>, cvc5::internal::theory::quantifiers::NodeRole>, std::allocator<std::pair<cvc5::internal::NodeTemplate<true>, cvc5::internal::theory::quantifiers::NodeRole>>>::_Vector_impl" = type { %"struct.std::_Vector_base<std::pair<cvc5::internal::NodeTemplate<true>, cvc5::internal::theory::quantifiers::NodeRole>, std::allocator<std::pair<cvc5::internal::NodeTemplate<true>, cvc5::internal::theory::quantifiers::NodeRole>>>::_Vector_impl_data" }
%"struct.std::_Vector_base<std::pair<cvc5::internal::NodeTemplate<true>, cvc5::internal::theory::quantifiers::NodeRole>, std::allocator<std::pair<cvc5::internal::NodeTemplate<true>, cvc5::internal::theory::quantifiers::NodeRole>>>::_Vector_impl_data" = type { ptr, ptr, ptr }

; Function Attrs: mustprogress uwtable
define hidden noundef zeroext i1 @_ZN4cvc58internal6theory11quantifiers17EnumTypeInfoStrat7isValidERNS2_11UnifContextE(ptr noundef nonnull align 8 dereferenceable(72) %0, ptr noundef nonnull align 8 dereferenceable(8) %1) #4 align 2 {
  %3 = alloca i1, align 1
  %4 = alloca ptr, align 8
  %5 = alloca ptr, align 8
  store ptr %0, ptr %4, align 8, !tbaa !99
  store ptr %1, ptr %5, align 8, !tbaa !385
  %6 = load ptr, ptr %4, align 8
  %7 = load ptr, ptr %5, align 8, !tbaa !385
  %8 = load ptr, ptr %7, align 8, !tbaa !12
  %9 = getelementptr inbounds ptr, ptr %8, i64 2
  %10 = load ptr, ptr %9, align 8
  %11 = call noundef i32 %10(ptr noundef nonnull align 8 dereferenceable(8) %7)
  %12 = icmp eq i32 %11, 2
  br i1 %12, label %13, label %17

13:                                               ; preds = %2
  %14 = getelementptr inbounds nuw %"class.cvc5::internal::theory::quantifiers::EnumTypeInfoStrat", ptr %6, i32 0, i32 0
  %15 = load i32, ptr %14, align 8, !tbaa !101
  %16 = icmp eq i32 %15, 3
  br i1 %16, label %28, label %17

17:                                               ; preds = %13, %2
  %18 = load ptr, ptr %5, align 8, !tbaa !385
  %19 = load ptr, ptr %18, align 8, !tbaa !12
  %20 = getelementptr inbounds ptr, ptr %19, i64 2
  %21 = load ptr, ptr %20, align 8
  %22 = call noundef i32 %21(ptr noundef nonnull align 8 dereferenceable(8) %18)
  %23 = icmp eq i32 %22, 3
  br i1 %23, label %24, label %29

24:                                               ; preds = %17
  %25 = getelementptr inbounds nuw %"class.cvc5::internal::theory::quantifiers::EnumTypeInfoStrat", ptr %6, i32 0, i32 0
  %26 = load i32, ptr %25, align 8, !tbaa !101
  %27 = icmp eq i32 %26, 2
  br i1 %27, label %28, label %29

28:                                               ; preds = %24, %13
  store i1 false, ptr %3, align 1
  br label %30

29:                                               ; preds = %24, %17
  store i1 true, ptr %3, align 1
  br label %30

30:                                               ; preds = %29, %28
  %31 = load i1, ptr %3, align 1
  ret i1 %31
}