; Function Attrs: mustprogress uwtable
define hidden noundef zeroext i1 @_ZN4cvc58internal6theory11quantifiers17EnumTypeInfoStrat7isValidERNS2_11UnifContextE(ptr noundef nonnull readonly align 8 captures(none) dereferenceable(72) %0, ptr noundef nonnull align 8 dereferenceable(8) %1) local_unnamed_addr #3 align 2 {
  %3 = load ptr, ptr %1, align 8, !tbaa !297
  %4 = getelementptr inbounds nuw i8, ptr %3, i64 16
  %5 = load ptr, ptr %4, align 8
  %6 = tail call noundef i32 %5(ptr noundef nonnull align 8 dereferenceable(8) %1)
  %7 = icmp eq i32 %6, 2
  %8 = load i32, ptr %0, align 8
  %9 = icmp eq i32 %8, 3
  %or.cond = select i1 %7, i1 %9, i1 false
  br i1 %or.cond, label %18, label %10

10:                                               ; preds = %2
  %11 = load ptr, ptr %1, align 8, !tbaa !297
  %12 = getelementptr inbounds nuw i8, ptr %11, i64 16
  %13 = load ptr, ptr %12, align 8
  %14 = tail call noundef i32 %13(ptr noundef nonnull align 8 dereferenceable(8) %1)
  %15 = icmp ne i32 %14, 3
  %16 = load i32, ptr %0, align 8
  %17 = icmp ne i32 %16, 2
  %or.cond6.not = select i1 %15, i1 true, i1 %17
  br label %18

18:                                               ; preds = %10, %2
  %.0 = phi i1 [ false, %2 ], [ %or.cond6.not, %10 ]
  ret i1 %.0
}